; Function Attrs: mustprogress nofree norecurse nosync nounwind memory(argmem: readwrite) uwtable
define noundef nonnull align 8 dereferenceable(32) ptr @_ZN5arrow15BasicDecimal2566NegateEv(ptr noundef nonnull returned align 8 captures(ret: address, provenance) dereferenceable(32) %0) local_unnamed_addr #8 align 2 {
  br label %3

2:                                                ; preds = %3
  ret ptr %0

3:                                                ; preds = %1, %3
  %.010 = phi i64 [ 1, %1 ], [ %10, %3 ]
  %.089 = phi i64 [ 0, %1 ], [ %11, %3 ]
  %4 = getelementptr inbounds nuw [4 x i64], ptr %0, i64 0, i64 %.089
  %5 = load i64, ptr %4, align 8, !tbaa !7
  %6 = xor i64 %5, -1
  %7 = add i64 %.010, %6
  store i64 %7, ptr %4, align 8, !tbaa !7
  %8 = icmp eq i64 %7, 0
  %9 = and i64 %.010, 1
  %10 = select i1 %8, i64 %9, i64 0
  %11 = add nuw nsw i64 %.089, 1
  %exitcond.not = icmp eq i64 %11, 4
  br i1 %exitcond.not, label %2, label %3, !llvm.loop !29
}